; ModuleID = '10/1498.c'
source_filename = "10/1498.c"
target datalayout = "e-m:e-p270:32:32-p271:32:32-p272:64:64-i64:64-f80:128-n8:16:32:64-S128"
target triple = "x86_64-pc-linux-gnu"

@.str = private unnamed_addr constant [3 x i8] c"%d\00", align 1
@b = common dso_local global [110 x i32] zeroinitializer, align 16
@aMaxLen = common dso_local global [110 x i32] zeroinitializer, align 16
@.str.1 = private unnamed_addr constant [4 x i8] c"%d\0A\00", align 1

; Function Attrs: noinline nounwind uwtable
define dso_local i32 @main() #0 {
  %1 = alloca i32, align 4
  %2 = alloca i32, align 4
  %3 = alloca i32, align 4
  %4 = alloca i32, align 4
  %5 = alloca i32, align 4
  %6 = alloca i32, align 4
  store i32 0, i32* %1, align 4
  %7 = call i32 (i8*, ...) @__isoc99_scanf(i8* getelementptr inbounds ([3 x i8], [3 x i8]* @.str, i64 0, i64 0), i32* %2)
  %8 = load i32, i32* %2, align 4
  store i32 %8, i32* %3, align 4
  br label %9

9:                                                ; preds = %17, %0
  %10 = load i32, i32* %3, align 4
  %11 = icmp sge i32 %10, 1
  br i1 %11, label %12, label %20

12:                                               ; preds = %9
  %13 = load i32, i32* %3, align 4
  %14 = sext i32 %13 to i64
  %15 = getelementptr inbounds [110 x i32], [110 x i32]* @b, i64 0, i64 %14
  %16 = call i32 (i8*, ...) @__isoc99_scanf(i8* getelementptr inbounds ([3 x i8], [3 x i8]* @.str, i64 0, i64 0), i32* %15)
  br label %17

17:                                               ; preds = %12
  %18 = load i32, i32* %3, align 4
  %19 = add nsw i32 %18, -1
  store i32 %19, i32* %3, align 4
  br label %9

20:                                               ; preds = %9
  store i32 1, i32* getelementptr inbounds ([110 x i32], [110 x i32]* @aMaxLen, i64 0, i64 1), align 4
  store i32 2, i32* %3, align 4
  br label %21

21:                                               ; preds = %63, %20
  %22 = load i32, i32* %3, align 4
  %23 = load i32, i32* %2, align 4
  %24 = icmp sle i32 %22, %23
  br i1 %24, label %25, label %66

25:                                               ; preds = %21
  store i32 0, i32* %5, align 4
  store i32 1, i32* %4, align 4
  br label %26

26:                                               ; preds = %54, %25
  %27 = load i32, i32* %4, align 4
  %28 = load i32, i32* %3, align 4
  %29 = icmp slt i32 %27, %28
  br i1 %29, label %30, label %57

30:                                               ; preds = %26
  %31 = load i32, i32* %3, align 4
  %32 = sext i32 %31 to i64
  %33 = getelementptr inbounds [110 x i32], [110 x i32]* @b, i64 0, i64 %32
  %34 = load i32, i32* %33, align 4
  %35 = load i32, i32* %4, align 4
  %36 = sext i32 %35 to i64
  %37 = getelementptr inbounds [110 x i32], [110 x i32]* @b, i64 0, i64 %36
  %38 = load i32, i32* %37, align 4
  %39 = icmp sge i32 %34, %38
  br i1 %39, label %40, label %53

40:                                               ; preds = %30
  %41 = load i32, i32* %5, align 4
  %42 = load i32, i32* %4, align 4
  %43 = sext i32 %42 to i64
  %44 = getelementptr inbounds [110 x i32], [110 x i32]* @aMaxLen, i64 0, i64 %43
  %45 = load i32, i32* %44, align 4
  %46 = icmp slt i32 %41, %45
  br i1 %46, label %47, label %52

47:                                               ; preds = %40
  %48 = load i32, i32* %4, align 4
  %49 = sext i32 %48 to i64
  %50 = getelementptr inbounds [110 x i32], [110 x i32]* @aMaxLen, i64 0, i64 %49
  %51 = load i32, i32* %50, align 4
  store i32 %51, i32* %5, align 4
  br label %52

52:                                               ; preds = %47, %40
  br label %53

53:                                               ; preds = %52, %30
  br label %54

54:                                               ; preds = %53
  %55 = load i32, i32* %4, align 4
  %56 = add nsw i32 %55, 1
  store i32 %56, i32* %4, align 4
  br label %26

57:                                               ; preds = %26
  %58 = load i32, i32* %5, align 4
  %59 = add nsw i32 %58, 1
  %60 = load i32, i32* %3, align 4
  %61 = sext i32 %60 to i64
  %62 = getelementptr inbounds [110 x i32], [110 x i32]* @aMaxLen, i64 0, i64 %61
  store i32 %59, i32* %62, align 4
  br label %63

63:                                               ; preds = %57
  %64 = load i32, i32* %3, align 4
  %65 = add nsw i32 %64, 1
  store i32 %65, i32* %3, align 4
  br label %21

66:                                               ; preds = %21
  store i32 -1, i32* %6, align 4
  store i32 1, i32* %3, align 4
  br label %67

67:                                               ; preds = %84, %66
  %68 = load i32, i32* %3, align 4
  %69 = load i32, i32* %2, align 4
  %70 = icmp sle i32 %68, %69
  br i1 %70, label %71, label %87

71:                                               ; preds = %67
  %72 = load i32, i32* %6, align 4
  %73 = load i32, i32* %3, align 4
  %74 = sext i32 %73 to i64
  %75 = getelementptr inbounds [110 x i32], [110 x i32]* @aMaxLen, i64 0, i64 %74
  %76 = load i32, i32* %75, align 4
  %77 = icmp slt i32 %72, %76
  br i1 %77, label %78, label %83

78:                                               ; preds = %71
  %79 = load i32, i32* %3, align 4
  %80 = sext i32 %79 to i64
  %81 = getelementptr inbounds [110 x i32], [110 x i32]* @aMaxLen, i64 0, i64 %80
  %82 = load i32, i32* %81, align 4
  store i32 %82, i32* %6, align 4
  br label %83

83:                                               ; preds = %78, %71
  br label %84

84:                                               ; preds = %83
  %85 = load i32, i32* %3, align 4
  %86 = add nsw i32 %85, 1
  store i32 %86, i32* %3, align 4
  br label %67

87:                                               ; preds = %67
  %88 = load i32, i32* %6, align 4
  %89 = call i32 (i8*, ...) @printf(i8* getelementptr inbounds ([4 x i8], [4 x i8]* @.str.1, i64 0, i64 0), i32 %88)
  ret i32 0
}

declare dso_local i32 @__isoc99_scanf(i8*, ...) #1

declare dso_local i32 @printf(i8*, ...) #1


!llvm.module.flags = !{!0}
!llvm.ident = !{!1}

!0 = !{i32 1, !"wchar_size", i32 4}
!1 = !{!"clang version 10.0.0-4ubuntu1 "}
